target datalayout = "e-m:e-p270:32:32-p271:32:32-p272:64:64-i64:64-i128:128-f80:128-n8:16:32:64-S128"
target triple = "x86_64-pc-linux-gnu"

%"class.folly::Range" = type { ptr, ptr }
%"class.std::__cxx11::basic_string" = type { %"struct.std::__cxx11::basic_string<char>::_Alloc_hider", i64, %union.anon }
%"struct.std::__cxx11::basic_string<char>::_Alloc_hider" = type { ptr }
%union.anon = type { i64, [8 x i8] }
%"struct.folly::dynamic" = type { i32, %"union.folly::dynamic::Data" }
%"union.folly::dynamic::Data" = type { %"class.std::__cxx11::basic_string" }
%"struct.folly::json::(anonymous namespace)::Input" = type <{ %"class.folly::Range", ptr, i32, i32, i32, [4 x i8] }>

@.str.52 = private unnamed_addr constant [19 x i8] c"index out of range\00", align 1
@.str.53 = private unnamed_addr constant [33 x i8] c"parsing didn't consume all input\00", align 1

; Function Attrs: alwaysinline mustprogress noreturn uwtable
define linkonce_odr hidden void @_ZN5folly15throw_exceptionISt12out_of_rangeJRA19_KcEEEvDpOT0_(ptr noundef nonnull align 1 dereferenceable(19) %0) #11 comdat {
  %2 = alloca ptr, align 8
  store ptr %0, ptr %2, align 8, !tbaa !12
  %3 = load ptr, ptr %2, align 8, !tbaa !12
  %4 = getelementptr inbounds [19 x i8], ptr %3, i64 0, i64 0
  call void @_ZN5folly6detail16throw_exception_ISt12out_of_rangeJPKcEEEvDpT0_(ptr noundef %4) #36
  unreachable
}

; Function Attrs: mustprogress nounwind uwtable
define linkonce_odr noundef nonnull align 1 dereferenceable(1) ptr @_ZN5folly5RangeIPKcE5frontEv(ptr noundef nonnull align 8 dereferenceable(16) %0) #3 comdat align 2 {
  %2 = alloca ptr, align 8
  store ptr %0, ptr %2, align 8, !tbaa !17
  %3 = load ptr, ptr %2, align 8
  %4 = getelementptr inbounds nuw %"class.folly::Range", ptr %3, i32 0, i32 0
  %5 = load ptr, ptr %4, align 8, !tbaa !24
  ret ptr %5
}

; Function Attrs: mustprogress nounwind uwtable
define linkonce_odr noundef zeroext i1 @_ZNK5folly5RangeIPKcE5emptyEv(ptr noundef nonnull align 8 dereferenceable(16) %0) #3 comdat align 2 {
  %2 = alloca ptr, align 8
  store ptr %0, ptr %2, align 8, !tbaa !17
  %3 = load ptr, ptr %2, align 8
  %4 = getelementptr inbounds nuw %"class.folly::Range", ptr %3, i32 0, i32 0
  %5 = load ptr, ptr %4, align 8, !tbaa !24
  %6 = getelementptr inbounds nuw %"class.folly::Range", ptr %3, i32 0, i32 1
  %7 = load ptr, ptr %6, align 8, !tbaa !26
  %8 = icmp eq ptr %5, %7
  ret i1 %8
}

; Function Attrs: mustprogress nounwind uwtable
define linkonce_odr void @_ZN5folly7dynamic4DataD2Ev(ptr noundef nonnull align 8 dereferenceable(32) %0) unnamed_addr #3 comdat align 2 {
  %2 = alloca ptr, align 8
  store ptr %0, ptr %2, align 8, !tbaa !102
  ret void
}

; Function Attrs: mustprogress uwtable
define linkonce_odr void @_ZN5folly5RangeIPKcE7advanceEm(ptr noundef nonnull align 8 dereferenceable(16) %0, i64 noundef %1) #0 comdat align 2 {
  %3 = alloca ptr, align 8
  %4 = alloca i64, align 8
  store ptr %0, ptr %3, align 8, !tbaa !17
  store i64 %1, ptr %4, align 8, !tbaa !15
  %5 = load ptr, ptr %3, align 8
  %6 = load i64, ptr %4, align 8, !tbaa !15
  %7 = call noundef i64 @_ZNK5folly5RangeIPKcE4sizeEv(ptr noundef nonnull align 8 dereferenceable(16) %5)
  %8 = icmp ugt i64 %6, %7
  %9 = zext i1 %8 to i64
  %10 = call i64 @llvm.expect.i64(i64 %9, i64 0)
  %11 = icmp ne i64 %10, 0
  br i1 %11, label %12, label %13

12:                                               ; preds = %2
  call void @_ZN5folly15throw_exceptionISt12out_of_rangeJRA19_KcEEEvDpOT0_(ptr noundef nonnull align 1 dereferenceable(19) @.str.52) #35
  unreachable

13:                                               ; preds = %2
  %14 = load i64, ptr %4, align 8, !tbaa !15
  %15 = getelementptr inbounds nuw %"class.folly::Range", ptr %5, i32 0, i32 0
  %16 = load ptr, ptr %15, align 8, !tbaa !24
  %17 = getelementptr inbounds nuw i8, ptr %16, i64 %14
  store ptr %17, ptr %15, align 8, !tbaa !24
  ret void
}

; Function Attrs: mustprogress nounwind uwtable
define linkonce_odr noundef nonnull align 1 dereferenceable(1) ptr @_ZN5folly5RangeIPKcEixEm(ptr noundef nonnull align 8 dereferenceable(16) %0, i64 noundef %1) #3 comdat align 2 {
  %3 = alloca ptr, align 8
  %4 = alloca i64, align 8
  store ptr %0, ptr %3, align 8, !tbaa !17
  store i64 %1, ptr %4, align 8, !tbaa !15
  %5 = load ptr, ptr %3, align 8
  %6 = getelementptr inbounds nuw %"class.folly::Range", ptr %5, i32 0, i32 0
  %7 = load ptr, ptr %6, align 8, !tbaa !24
  %8 = load i64, ptr %4, align 8, !tbaa !15
  %9 = getelementptr inbounds nuw i8, ptr %7, i64 %8
  ret ptr %9
}

; Function Attrs: mustprogress nounwind uwtable
define linkonce_odr noundef i64 @_ZNK5folly5RangeIPKcE4sizeEv(ptr noundef nonnull align 8 dereferenceable(16) %0) #3 comdat align 2 {
  %2 = alloca ptr, align 8
  store ptr %0, ptr %2, align 8, !tbaa !17
  %3 = load ptr, ptr %2, align 8
  %4 = getelementptr inbounds nuw %"class.folly::Range", ptr %3, i32 0, i32 1
  %5 = load ptr, ptr %4, align 8, !tbaa !26
  %6 = getelementptr inbounds nuw %"class.folly::Range", ptr %3, i32 0, i32 0
  %7 = load ptr, ptr %6, align 8, !tbaa !24
  %8 = ptrtoint ptr %5 to i64
  %9 = ptrtoint ptr %7 to i64
  %10 = sub i64 %8, %9
  ret i64 %10
}

; Function Attrs: mustprogress uwtable
define internal void @_ZN5folly4json12_GLOBAL__N_15Input12storeCurrentEv(ptr noundef nonnull align 8 dereferenceable(36) %0) #0 align 2 {
  %2 = alloca ptr, align 8
  store ptr %0, ptr %2, align 8, !tbaa !594
  %3 = load ptr, ptr %2, align 8
  %4 = getelementptr inbounds nuw %"struct.folly::json::(anonymous namespace)::Input", ptr %3, i32 0, i32 0
  %5 = call noundef zeroext i1 @_ZNK5folly5RangeIPKcE5emptyEv(ptr noundef nonnull align 8 dereferenceable(16) %4)
  br i1 %5, label %6, label %7

6:                                                ; preds = %1
  br label %12

7:                                                ; preds = %1
  %8 = getelementptr inbounds nuw %"struct.folly::json::(anonymous namespace)::Input", ptr %3, i32 0, i32 0
  %9 = call noundef nonnull align 1 dereferenceable(1) ptr @_ZN5folly5RangeIPKcE5frontEv(ptr noundef nonnull align 8 dereferenceable(16) %8)
  %10 = load i8, ptr %9, align 1, !tbaa !14
  %11 = sext i8 %10 to i32
  br label %12

12:                                               ; preds = %7, %6
  %13 = phi i32 [ -1, %6 ], [ %11, %7 ]
  %14 = getelementptr inbounds nuw %"struct.folly::json::(anonymous namespace)::Input", ptr %3, i32 0, i32 3
  store i32 %13, ptr %14, align 4, !tbaa !603
  ret void
}

; Function Attrs: inlinehint mustprogress nounwind uwtable
define linkonce_odr void @_ZN5folly7dynamicD2Ev(ptr noundef nonnull align 8 dereferenceable(40) %0) unnamed_addr #6 comdat align 2 {
  %2 = alloca ptr, align 8
  store ptr %0, ptr %2, align 8, !tbaa !29
  %3 = load ptr, ptr %2, align 8
  call void @_ZN5folly7dynamic7destroyEv(ptr noundef nonnull align 8 dereferenceable(40) %3) #33
  %4 = getelementptr inbounds nuw %"struct.folly::dynamic", ptr %3, i32 0, i32 1
  call void @_ZN5folly7dynamic4DataD2Ev(ptr noundef nonnull align 8 dereferenceable(32) %4) #33
  ret void
}

; Function Attrs: mustprogress nounwind uwtable
define internal noundef i32 @_ZNK5folly4json12_GLOBAL__N_15InputdeEv(ptr noundef nonnull align 8 dereferenceable(36) %0) #3 align 2 {
  %2 = alloca ptr, align 8
  store ptr %0, ptr %2, align 8, !tbaa !594
  %3 = load ptr, ptr %2, align 8
  %4 = getelementptr inbounds nuw %"struct.folly::json::(anonymous namespace)::Input", ptr %3, i32 0, i32 3
  %5 = load i32, ptr %4, align 4, !tbaa !603
  ret i32 %5
}

; Function Attrs: mustprogress nounwind uwtable
define internal noundef i64 @_ZNK5folly4json12_GLOBAL__N_15Input4sizeEv(ptr noundef nonnull align 8 dereferenceable(36) %0) #3 align 2 {
  %2 = alloca ptr, align 8
  store ptr %0, ptr %2, align 8, !tbaa !594
  %3 = load ptr, ptr %2, align 8
  %4 = getelementptr inbounds nuw %"struct.folly::json::(anonymous namespace)::Input", ptr %3, i32 0, i32 0
  %5 = call noundef i64 @_ZNK5folly5RangeIPKcE4sizeEv(ptr noundef nonnull align 8 dereferenceable(16) %4)
  ret i64 %5
}

; Function Attrs: mustprogress uwtable
define internal void @_ZN5folly4json12_GLOBAL__N_15Input14skipWhitespaceEv(ptr noundef nonnull align 8 dereferenceable(36) %0) #0 align 2 {
  %2 = alloca ptr, align 8
  %3 = alloca i32, align 4
  store ptr %0, ptr %2, align 8, !tbaa !594
  %4 = load ptr, ptr %2, align 8
  call void @llvm.lifetime.start.p0(i64 4, ptr %3) #33
  store i32 0, ptr %3, align 4, !tbaa !33
  br label %5

5:                                                ; preds = %62, %40, %1
  br label %6

6:                                                ; preds = %5
  br label %7

7:                                                ; preds = %23, %6
  %8 = load i32, ptr %3, align 4, !tbaa !33
  %9 = zext i32 %8 to i64
  %10 = getelementptr inbounds nuw %"struct.folly::json::(anonymous namespace)::Input", ptr %4, i32 0, i32 0
  %11 = call noundef i64 @_ZNK5folly5RangeIPKcE4sizeEv(ptr noundef nonnull align 8 dereferenceable(16) %10)
  %12 = icmp ult i64 %9, %11
  br i1 %12, label %13, label %21

13:                                               ; preds = %7
  %14 = getelementptr inbounds nuw %"struct.folly::json::(anonymous namespace)::Input", ptr %4, i32 0, i32 0
  %15 = load i32, ptr %3, align 4, !tbaa !33
  %16 = zext i32 %15 to i64
  %17 = call noundef nonnull align 1 dereferenceable(1) ptr @_ZN5folly5RangeIPKcEixEm(ptr noundef nonnull align 8 dereferenceable(16) %14, i64 noundef %16)
  %18 = load i8, ptr %17, align 1, !tbaa !14
  %19 = sext i8 %18 to i32
  %20 = icmp eq i32 %19, 32
  br label %21

21:                                               ; preds = %13, %7
  %22 = phi i1 [ false, %7 ], [ %20, %13 ]
  br i1 %22, label %23, label %26

23:                                               ; preds = %21
  %24 = load i32, ptr %3, align 4, !tbaa !33
  %25 = add i32 %24, 1
  store i32 %25, ptr %3, align 4, !tbaa !33
  br label %7, !llvm.loop !601

26:                                               ; preds = %21
  %27 = load i32, ptr %3, align 4, !tbaa !33
  %28 = zext i32 %27 to i64
  %29 = getelementptr inbounds nuw %"struct.folly::json::(anonymous namespace)::Input", ptr %4, i32 0, i32 0
  %30 = call noundef i64 @_ZNK5folly5RangeIPKcE4sizeEv(ptr noundef nonnull align 8 dereferenceable(16) %29)
  %31 = icmp ult i64 %28, %30
  br i1 %31, label %32, label %66

32:                                               ; preds = %26
  %33 = getelementptr inbounds nuw %"struct.folly::json::(anonymous namespace)::Input", ptr %4, i32 0, i32 0
  %34 = load i32, ptr %3, align 4, !tbaa !33
  %35 = zext i32 %34 to i64
  %36 = call noundef nonnull align 1 dereferenceable(1) ptr @_ZN5folly5RangeIPKcEixEm(ptr noundef nonnull align 8 dereferenceable(16) %33, i64 noundef %35)
  %37 = load i8, ptr %36, align 1, !tbaa !14
  %38 = sext i8 %37 to i32
  %39 = icmp eq i32 %38, 10
  br i1 %39, label %40, label %46

40:                                               ; preds = %32
  %41 = load i32, ptr %3, align 4, !tbaa !33
  %42 = add i32 %41, 1
  store i32 %42, ptr %3, align 4, !tbaa !33
  %43 = getelementptr inbounds nuw %"struct.folly::json::(anonymous namespace)::Input", ptr %4, i32 0, i32 2
  %44 = load i32, ptr %43, align 8, !tbaa !596
  %45 = add i32 %44, 1
  store i32 %45, ptr %43, align 8, !tbaa !596
  br label %5, !llvm.loop !602

46:                                               ; preds = %32
  %47 = getelementptr inbounds nuw %"struct.folly::json::(anonymous namespace)::Input", ptr %4, i32 0, i32 0
  %48 = load i32, ptr %3, align 4, !tbaa !33
  %49 = zext i32 %48 to i64
  %50 = call noundef nonnull align 1 dereferenceable(1) ptr @_ZN5folly5RangeIPKcEixEm(ptr noundef nonnull align 8 dereferenceable(16) %47, i64 noundef %49)
  %51 = load i8, ptr %50, align 1, !tbaa !14
  %52 = sext i8 %51 to i32
  %53 = icmp eq i32 %52, 9
  br i1 %53, label %62, label %54

54:                                               ; preds = %46
  %55 = getelementptr inbounds nuw %"struct.folly::json::(anonymous namespace)::Input", ptr %4, i32 0, i32 0
  %56 = load i32, ptr %3, align 4, !tbaa !33
  %57 = zext i32 %56 to i64
  %58 = call noundef nonnull align 1 dereferenceable(1) ptr @_ZN5folly5RangeIPKcEixEm(ptr noundef nonnull align 8 dereferenceable(16) %55, i64 noundef %57)
  %59 = load i8, ptr %58, align 1, !tbaa !14
  %60 = sext i8 %59 to i32
  %61 = icmp eq i32 %60, 13
  br i1 %61, label %62, label %65

62:                                               ; preds = %54, %46
  %63 = load i32, ptr %3, align 4, !tbaa !33
  %64 = add i32 %63, 1
  store i32 %64, ptr %3, align 4, !tbaa !33
  br label %5, !llvm.loop !602

65:                                               ; preds = %54
  br label %66

66:                                               ; preds = %65, %26
  br label %67

67:                                               ; preds = %66
  %68 = getelementptr inbounds nuw %"struct.folly::json::(anonymous namespace)::Input", ptr %4, i32 0, i32 0
  %69 = load i32, ptr %3, align 4, !tbaa !33
  %70 = zext i32 %69 to i64
  call void @_ZN5folly5RangeIPKcE7advanceEm(ptr noundef nonnull align 8 dereferenceable(16) %68, i64 noundef %70)
  call void @_ZN5folly4json12_GLOBAL__N_15Input12storeCurrentEv(ptr noundef nonnull align 8 dereferenceable(36) %4)
  call void @llvm.lifetime.end.p0(i64 4, ptr %3) #33
  ret void
}

; Function Attrs: mustprogress uwtable
define internal void @_ZN5folly4json12_GLOBAL__N_15InputC2ENS_5RangeIPKcEEPKNS0_18serialization_optsE(ptr noundef nonnull align 8 dereferenceable(36) %0, ptr %1, ptr %2, ptr noundef %3) unnamed_addr #0 align 2 {
  %5 = alloca %"class.folly::Range", align 8
  %6 = alloca ptr, align 8
  %7 = alloca ptr, align 8
  %8 = getelementptr inbounds nuw { ptr, ptr }, ptr %5, i32 0, i32 0
  store ptr %1, ptr %8, align 8
  %9 = getelementptr inbounds nuw { ptr, ptr }, ptr %5, i32 0, i32 1
  store ptr %2, ptr %9, align 8
  store ptr %0, ptr %6, align 8, !tbaa !594
  store ptr %3, ptr %7, align 8, !tbaa !31
  %10 = load ptr, ptr %6, align 8
  %11 = getelementptr inbounds nuw %"struct.folly::json::(anonymous namespace)::Input", ptr %10, i32 0, i32 0
  call void @llvm.memcpy.p0.p0.i64(ptr align 8 %11, ptr align 8 %5, i64 16, i1 false), !tbaa.struct !87
  %12 = getelementptr inbounds nuw %"struct.folly::json::(anonymous namespace)::Input", ptr %10, i32 0, i32 1
  %13 = load ptr, ptr %7, align 8, !tbaa !31
  store ptr %13, ptr %12, align 8, !tbaa !31
  %14 = getelementptr inbounds nuw %"struct.folly::json::(anonymous namespace)::Input", ptr %10, i32 0, i32 2
  store i32 0, ptr %14, align 8, !tbaa !596
  %15 = getelementptr inbounds nuw %"struct.folly::json::(anonymous namespace)::Input", ptr %10, i32 0, i32 4
  store i32 0, ptr %15, align 8, !tbaa !598
  call void @_ZN5folly4json12_GLOBAL__N_15Input12storeCurrentEv(ptr noundef nonnull align 8 dereferenceable(36) %10)
  ret void
}

; Function Attrs: mustprogress uwtable
define void @_ZN5folly9parseJsonENS_5RangeIPKcEERKNS_4json18serialization_optsE(ptr dead_on_unwind noalias writable sret(%"struct.folly::dynamic") align 8 %0, ptr %1, ptr %2, ptr noundef nonnull align 16 dereferenceable(120) %3) #0 personality ptr @__gxx_personality_v0 {
  %5 = alloca ptr, align 8
  %6 = alloca %"class.folly::Range", align 8
  %7 = alloca ptr, align 8
  %8 = alloca %"struct.folly::json::(anonymous namespace)::Input", align 8
  %9 = alloca %"class.folly::Range", align 8
  %10 = alloca i1, align 1
  %11 = alloca ptr, align 8
  %12 = alloca i32, align 4
  store ptr %0, ptr %5, align 8
  %13 = getelementptr inbounds nuw { ptr, ptr }, ptr %6, i32 0, i32 0
  store ptr %1, ptr %13, align 8
  %14 = getelementptr inbounds nuw { ptr, ptr }, ptr %6, i32 0, i32 1
  store ptr %2, ptr %14, align 8
  store ptr %3, ptr %7, align 8, !tbaa !31
  call void @llvm.lifetime.start.p0(i64 40, ptr %8) #33
  call void @llvm.memcpy.p0.p0.i64(ptr align 8 %9, ptr align 8 %6, i64 16, i1 false), !tbaa.struct !87
  %15 = load ptr, ptr %7, align 8, !tbaa !31
  %16 = getelementptr inbounds nuw { ptr, ptr }, ptr %9, i32 0, i32 0
  %17 = load ptr, ptr %16, align 8
  %18 = getelementptr inbounds nuw { ptr, ptr }, ptr %9, i32 0, i32 1
  %19 = load ptr, ptr %18, align 8
  call void @_ZN5folly4json12_GLOBAL__N_15InputC2ENS_5RangeIPKcEEPKNS0_18serialization_optsE(ptr noundef nonnull align 8 dereferenceable(36) %8, ptr %17, ptr %19, ptr noundef %15)
  store i1 false, ptr %10, align 1
  call void @_ZN5folly4json12_GLOBAL__N_110parseValueERNS1_5InputEPSt13unordered_mapIPKNS_7dynamicENS0_14parse_metadataESt4hashIS7_ESt8equal_toIS7_ESaISt4pairIKS7_S8_EEE(ptr dead_on_unwind writable sret(%"struct.folly::dynamic") align 8 %0, ptr noundef nonnull align 8 dereferenceable(36) %8, ptr noundef null)
  invoke void @_ZN5folly4json12_GLOBAL__N_15Input14skipWhitespaceEv(ptr noundef nonnull align 8 dereferenceable(36) %8)
          to label %20 unwind label %28

20:                                               ; preds = %4
  %21 = call noundef i64 @_ZNK5folly4json12_GLOBAL__N_15Input4sizeEv(ptr noundef nonnull align 8 dereferenceable(36) %8)
  %22 = icmp ne i64 %21, 0
  br i1 %22, label %23, label %32

23:                                               ; preds = %20
  %24 = call noundef i32 @_ZNK5folly4json12_GLOBAL__N_15InputdeEv(ptr noundef nonnull align 8 dereferenceable(36) %8)
  %25 = icmp ne i32 %24, 0
  br i1 %25, label %26, label %32

26:                                               ; preds = %23
  invoke void @_ZNK5folly4json12_GLOBAL__N_15Input5errorEPKc(ptr noundef nonnull align 8 dereferenceable(36) %8, ptr noundef @.str.53) #35
          to label %27 unwind label %28

27:                                               ; preds = %26
  unreachable

28:                                               ; preds = %26, %4
  %29 = landingpad { ptr, i32 }
          cleanup
  %30 = extractvalue { ptr, i32 } %29, 0
  store ptr %30, ptr %11, align 8
  %31 = extractvalue { ptr, i32 } %29, 1
  store i32 %31, ptr %12, align 4
  call void @_ZN5folly7dynamicD2Ev(ptr noundef nonnull align 8 dereferenceable(40) %0) #33
  call void @llvm.lifetime.end.p0(i64 40, ptr %8) #33
  br label %36

32:                                               ; preds = %23, %20
  store i1 true, ptr %10, align 1
  %33 = load i1, ptr %10, align 1
  br i1 %33, label %35, label %34

34:                                               ; preds = %32
  call void @_ZN5folly7dynamicD2Ev(ptr noundef nonnull align 8 dereferenceable(40) %0) #33
  br label %35

35:                                               ; preds = %34, %32
  call void @llvm.lifetime.end.p0(i64 40, ptr %8) #33
  ret void

36:                                               ; preds = %28
  %37 = load ptr, ptr %11, align 8
  %38 = load i32, ptr %12, align 4
  %39 = insertvalue { ptr, i32 } poison, ptr %37, 0
  %40 = insertvalue { ptr, i32 } %39, i32 %38, 1
  resume { ptr, i32 } %40
}