; Function Attrs: mustprogress uwtable
define void @_ZN5folly9parseJsonENS_5RangeIPKcEERKNS_4json18serialization_optsE(ptr dead_on_unwind noalias writable sret(%"struct.folly::dynamic") align 8 %0, ptr %1, ptr %2, ptr noundef nonnull align 16 dereferenceable(120) %3) local_unnamed_addr #3 personality ptr @__gxx_personality_v0 {
  %5 = alloca %"struct.folly::json::(anonymous namespace)::Input", align 8
  call void @llvm.lifetime.start.p0(i64 40, ptr nonnull %5) #31
  store ptr %1, ptr %5, align 8, !tbaa !55
  %.sroa.2.0..sroa_idx.i = getelementptr inbounds nuw i8, ptr %5, i64 8
  store ptr %2, ptr %.sroa.2.0..sroa_idx.i, align 8, !tbaa !55
  %6 = getelementptr inbounds nuw i8, ptr %5, i64 16
  store ptr %3, ptr %6, align 8, !tbaa !35
  %7 = getelementptr inbounds nuw i8, ptr %5, i64 24
  store i32 0, ptr %7, align 8, !tbaa !318
  %8 = getelementptr inbounds nuw i8, ptr %5, i64 32
  store i32 0, ptr %8, align 8, !tbaa !321
  %9 = icmp eq ptr %1, %2
  br i1 %9, label %_ZN5folly4json12_GLOBAL__N_15InputC2ENS_5RangeIPKcEEPKNS0_18serialization_optsE.exit, label %10

10:                                               ; preds = %4
  %11 = load i8, ptr %1, align 1, !tbaa !7
  %12 = sext i8 %11 to i32
  br label %_ZN5folly4json12_GLOBAL__N_15InputC2ENS_5RangeIPKcEEPKNS0_18serialization_optsE.exit

_ZN5folly4json12_GLOBAL__N_15InputC2ENS_5RangeIPKcEEPKNS0_18serialization_optsE.exit: ; preds = %4, %10
  %13 = phi i32 [ %12, %10 ], [ -1, %4 ]
  %14 = getelementptr inbounds nuw i8, ptr %5, i64 28
  store i32 %13, ptr %14, align 4, !tbaa !322
  call fastcc void @_ZN5folly4json12_GLOBAL__N_110parseValueERNS1_5InputEPSt13unordered_mapIPKNS_7dynamicENS0_14parse_metadataESt4hashIS7_ESt8equal_toIS7_ESaISt4pairIKS7_S8_EEE(ptr dead_on_unwind noalias writable align 8 %0, ptr noundef nonnull align 8 dereferenceable(36) %5, ptr noundef null)
  %15 = load ptr, ptr %.sroa.2.0..sroa_idx.i, align 8, !tbaa !325
  %16 = load ptr, ptr %5, align 8, !tbaa !326
  %17 = ptrtoint ptr %15 to i64
  %18 = ptrtoint ptr %16 to i64
  %19 = sub i64 %17, %18
  %.not.i = icmp eq ptr %15, %16
  br i1 %.not.i, label %_ZN5folly5RangeIPKcE7advanceEm.exit.i, label %.lr.ph.lr.ph.i

.lr.ph.lr.ph.i:                                   ; preds = %_ZN5folly4json12_GLOBAL__N_15InputC2ENS_5RangeIPKcEEPKNS0_18serialization_optsE.exit
  %.promoted.i = load i32, ptr %7, align 8
  br label %.lr.ph.i

.lr.ph.i:                                         ; preds = %.backedge.i, %.lr.ph.lr.ph.i
  %20 = phi i32 [ %.promoted.i, %.lr.ph.lr.ph.i ], [ %32, %.backedge.i ]
  %21 = phi i64 [ 0, %.lr.ph.lr.ph.i ], [ %33, %.backedge.i ]
  %.030.i = phi i32 [ 0, %.lr.ph.lr.ph.i ], [ %.0.be.i, %.backedge.i ]
  br label %22

22:                                               ; preds = %26, %.lr.ph.i
  %23 = phi i64 [ %21, %.lr.ph.i ], [ %28, %26 ]
  %.121.i = phi i32 [ %.030.i, %.lr.ph.i ], [ %27, %26 ]
  %24 = getelementptr inbounds nuw i8, ptr %16, i64 %23
  %25 = load i8, ptr %24, align 1, !tbaa !7
  switch i8 %25, label %.critedge.i [
    i8 32, label %26
    i8 10, label %30
    i8 9, label %.backedge.i
    i8 13, label %.backedge.i
  ]

26:                                               ; preds = %22
  %27 = add i32 %.121.i, 1
  %28 = zext i32 %27 to i64
  %29 = icmp ugt i64 %19, %28
  br i1 %29, label %22, label %.critedge.i, !llvm.loop !327

30:                                               ; preds = %22
  %31 = add i32 %20, 1
  store i32 %31, ptr %7, align 8, !tbaa !318
  br label %.backedge.i

.backedge.i:                                      ; preds = %22, %22, %30
  %32 = phi i32 [ %31, %30 ], [ %20, %22 ], [ %20, %22 ]
  %.0.be.i = add i32 %.121.i, 1
  %33 = zext i32 %.0.be.i to i64
  %34 = icmp ugt i64 %19, %33
  br i1 %34, label %.lr.ph.i, label %.critedge.i, !llvm.loop !328

.critedge.i:                                      ; preds = %.backedge.i, %22, %26
  %35 = phi i64 [ %23, %22 ], [ %28, %26 ], [ %33, %.backedge.i ]
  %36 = icmp ult i64 %19, %35
  br i1 %36, label %37, label %_ZN5folly5RangeIPKcE7advanceEm.exit.i, !prof !329

37:                                               ; preds = %.critedge.i
  invoke void @_ZN5folly6detail16throw_exception_ISt12out_of_rangeJPKcEEEvDpT0_(ptr noundef nonnull @.str.52) #7
          to label %.noexc unwind label %45

.noexc:                                           ; preds = %37
  unreachable

_ZN5folly5RangeIPKcE7advanceEm.exit.i:            ; preds = %.critedge.i, %_ZN5folly4json12_GLOBAL__N_15InputC2ENS_5RangeIPKcEEPKNS0_18serialization_optsE.exit
  %38 = phi i64 [ %35, %.critedge.i ], [ 0, %_ZN5folly4json12_GLOBAL__N_15InputC2ENS_5RangeIPKcEEPKNS0_18serialization_optsE.exit ]
  %39 = getelementptr inbounds nuw i8, ptr %16, i64 %38
  store ptr %39, ptr %5, align 8, !tbaa !326
  %40 = icmp eq ptr %39, %15
  br i1 %40, label %.thread, label %41

41:                                               ; preds = %_ZN5folly5RangeIPKcE7advanceEm.exit.i
  %42 = load i8, ptr %39, align 1, !tbaa !7
  %43 = sext i8 %42 to i32
  store i32 %43, ptr %14, align 4, !tbaa !322
  %.not5 = icmp eq i8 %42, 0
  br i1 %.not5, label %.thread, label %.thread9

.thread9:                                         ; preds = %41
  invoke fastcc void @_ZNK5folly4json12_GLOBAL__N_15Input5errorEPKc(ptr noundef nonnull align 8 dereferenceable(36) %5, ptr noundef nonnull @.str.53) #33
          to label %44 unwind label %45

44:                                               ; preds = %.thread9
  unreachable

45:                                               ; preds = %37, %.thread9
  %46 = landingpad { ptr, i32 }
          cleanup
  call void @_ZN5folly7dynamic7destroyEv(ptr noundef nonnull align 8 dereferenceable(40) %0) #31
  call void @llvm.lifetime.end.p0(i64 40, ptr nonnull %5) #31
  resume { ptr, i32 } %46

.thread:                                          ; preds = %_ZN5folly5RangeIPKcE7advanceEm.exit.i, %41
  call void @llvm.lifetime.end.p0(i64 40, ptr nonnull %5) #31
  ret void
}